; Function Attrs: mustprogress null_pointer_is_valid sspstrong uwtable
define void @_ZN17PathSelectionEdit7setPathE7QString(ptr noundef align 8 dereferenceable_or_null(112) %0, ptr noundef %1) #0 align 2 personality ptr @__gxx_personality_v0 {
  %3 = alloca %class.QString, align 8
  %4 = getelementptr inbounds nuw i8, ptr %0, i64 64
  %5 = tail call noundef align 8 dereferenceable(24) ptr @_ZN7QStringaSERKS_(ptr noundef nonnull align 8 dereferenceable_or_null(24) %4, ptr noundef align 8 dereferenceable(24) %1) #9
  %6 = tail call noundef ptr @_ZNK7QObject6senderEv(ptr noundef align 8 dereferenceable_or_null(16) %0)
  %.not = icmp eq ptr %6, null
  br i1 %.not, label %7, label %14

7:                                                ; preds = %2
  %8 = getelementptr inbounds nuw i8, ptr %0, i64 96
  %9 = load ptr, ptr %8, align 8
  %10 = tail call noundef zeroext i1 @_ZN7QObject12blockSignalsEb(ptr noundef align 8 dereferenceable_or_null(16) %9, i1 noundef zeroext true) #9
  %11 = load ptr, ptr %8, align 8
  tail call void @_ZN9QLineEdit7setTextERK7QString(ptr noundef align 8 dereferenceable_or_null(40) %11, ptr noundef align 8 dereferenceable(24) %1)
  %12 = load ptr, ptr %8, align 8
  %13 = tail call noundef zeroext i1 @_ZN7QObject12blockSignalsEb(ptr noundef align 8 dereferenceable_or_null(16) %12, i1 noundef zeroext false) #9
  br label %_ZN7QStringD2Ev.exit

14:                                               ; preds = %2
  %15 = load ptr, ptr %1, align 8
  store ptr %15, ptr %3, align 8
  %16 = getelementptr inbounds nuw i8, ptr %3, i64 8
  %17 = getelementptr inbounds nuw i8, ptr %1, i64 8
  %18 = load ptr, ptr %17, align 8
  store ptr %18, ptr %16, align 8
  %19 = getelementptr inbounds nuw i8, ptr %3, i64 16
  %20 = getelementptr inbounds nuw i8, ptr %1, i64 16
  %21 = load i64, ptr %20, align 8
  store i64 %21, ptr %19, align 8
  %.not.i.i.i = icmp eq ptr %15, null
  br i1 %.not.i.i.i, label %_ZN7QStringC2ERKS_.exit, label %22

22:                                               ; preds = %14
  %23 = atomicrmw add ptr %15, i32 1 seq_cst, align 4
  br label %_ZN7QStringC2ERKS_.exit

_ZN7QStringC2ERKS_.exit:                          ; preds = %14, %22
  invoke void @_ZN17PathSelectionEdit11pathChangedE7QString(ptr noundef align 8 dereferenceable_or_null(112) %0, ptr noundef nonnull %3)
          to label %24 unwind label %29

24:                                               ; preds = %_ZN7QStringC2ERKS_.exit
  %25 = load ptr, ptr %3, align 8
  %.not.i.i.i2 = icmp eq ptr %25, null
  br i1 %.not.i.i.i2, label %_ZN7QStringD2Ev.exit, label %_ZN17QArrayDataPointerIDsE5derefEv.exit.i.i

_ZN17QArrayDataPointerIDsE5derefEv.exit.i.i:      ; preds = %24
  %26 = atomicrmw sub ptr %25, i32 1 seq_cst, align 4
  %.not.i.i = icmp eq i32 %26, 1
  br i1 %.not.i.i, label %27, label %_ZN7QStringD2Ev.exit

27:                                               ; preds = %_ZN17QArrayDataPointerIDsE5derefEv.exit.i.i
  %28 = load ptr, ptr %3, align 8
  call void @_ZN10QArrayData10deallocateEPS_xx(ptr noundef %28, i64 noundef 2, i64 noundef 8) #9
  br label %_ZN7QStringD2Ev.exit

29:                                               ; preds = %_ZN7QStringC2ERKS_.exit
  %30 = landingpad { ptr, i32 }
          cleanup
  %31 = load ptr, ptr %3, align 8
  %.not.i.i.i3 = icmp eq ptr %31, null
  br i1 %.not.i.i.i3, label %_ZN7QStringD2Ev.exit6, label %_ZN17QArrayDataPointerIDsE5derefEv.exit.i.i4

_ZN17QArrayDataPointerIDsE5derefEv.exit.i.i4:     ; preds = %29
  %32 = atomicrmw sub ptr %31, i32 1 seq_cst, align 4
  %.not.i.i5 = icmp eq i32 %32, 1
  br i1 %.not.i.i5, label %33, label %_ZN7QStringD2Ev.exit6

33:                                               ; preds = %_ZN17QArrayDataPointerIDsE5derefEv.exit.i.i4
  %34 = load ptr, ptr %3, align 8
  call void @_ZN10QArrayData10deallocateEPS_xx(ptr noundef %34, i64 noundef 2, i64 noundef 8) #9
  br label %_ZN7QStringD2Ev.exit6

_ZN7QStringD2Ev.exit6:                            ; preds = %29, %_ZN17QArrayDataPointerIDsE5derefEv.exit.i.i4, %33
  resume { ptr, i32 } %30

_ZN7QStringD2Ev.exit:                             ; preds = %27, %_ZN17QArrayDataPointerIDsE5derefEv.exit.i.i, %24, %7
  ret void
}